target datalayout = "e-m:e-p270:32:32-p271:32:32-p272:64:64-i64:64-i128:128-f80:128-n8:16:32:64-S128"
target triple = "x86_64-pc-linux-gnu"

%struct._zval_struct = type { %union._zend_value, %union.anon.3, %union.anon.6 }
%union._zend_value = type { i64 }
%union.anon.3 = type { i32 }
%union.anon.6 = type { i32 }
%struct._php_stream_context = type { ptr, %struct._zval_struct, ptr }
%struct._php_stream_notifier = type { ptr, ptr, %struct._zval_struct, i32, i64, i64 }

; Function Attrs: nounwind uwtable
define void @php_stream_notification_free(ptr noundef %0) #0 {
  %2 = alloca ptr, align 8
  store ptr %0, ptr %2, align 8
  %3 = load ptr, ptr %2, align 8
  %4 = getelementptr inbounds %struct._php_stream_notifier, ptr %3, i32 0, i32 1
  %5 = load ptr, ptr %4, align 8
  %6 = icmp ne ptr %5, null
  br i1 %6, label %7, label %12

7:                                                ; preds = %1
  %8 = load ptr, ptr %2, align 8
  %9 = getelementptr inbounds %struct._php_stream_notifier, ptr %8, i32 0, i32 1
  %10 = load ptr, ptr %9, align 8
  %11 = load ptr, ptr %2, align 8
  call void %10(ptr noundef %11)
  br label %12

12:                                               ; preds = %7, %1
  %13 = load ptr, ptr %2, align 8
  call void @_efree(ptr noundef %13)
  ret void
}

; Function Attrs: nounwind uwtable
define void @php_stream_context_free(ptr noundef %0) #0 {
  %2 = alloca ptr, align 8
  %3 = alloca ptr, align 8
  store ptr %0, ptr %3, align 8
  %4 = load ptr, ptr %3, align 8
  %5 = getelementptr inbounds %struct._php_stream_context, ptr %4, i32 0, i32 1
  store ptr %5, ptr %2, align 8
  %6 = load ptr, ptr %2, align 8
  %7 = getelementptr inbounds %struct._zval_struct, ptr %6, i32 0, i32 1
  %8 = load i8, ptr %7, align 8
  %9 = zext i8 %8 to i32
  %10 = icmp ne i32 %9, 0
  br i1 %10, label %11, label %19

11:                                               ; preds = %1
  %12 = load ptr, ptr %3, align 8
  %13 = getelementptr inbounds %struct._php_stream_context, ptr %12, i32 0, i32 1
  call void @zval_ptr_dtor(ptr noundef %13)
  br label %14

14:                                               ; preds = %11
  %15 = load ptr, ptr %3, align 8
  %16 = getelementptr inbounds %struct._php_stream_context, ptr %15, i32 0, i32 1
  %17 = getelementptr inbounds %struct._zval_struct, ptr %16, i32 0, i32 1
  store i32 0, ptr %17, align 8
  br label %18

18:                                               ; preds = %14
  br label %19

19:                                               ; preds = %18, %1
  %20 = load ptr, ptr %3, align 8
  %21 = getelementptr inbounds %struct._php_stream_context, ptr %20, i32 0, i32 0
  %22 = load ptr, ptr %21, align 8
  %23 = icmp ne ptr %22, null
  br i1 %23, label %24, label %30

24:                                               ; preds = %19
  %25 = load ptr, ptr %3, align 8
  %26 = getelementptr inbounds %struct._php_stream_context, ptr %25, i32 0, i32 0
  %27 = load ptr, ptr %26, align 8
  call void @php_stream_notification_free(ptr noundef %27)
  %28 = load ptr, ptr %3, align 8
  %29 = getelementptr inbounds %struct._php_stream_context, ptr %28, i32 0, i32 0
  store ptr null, ptr %29, align 8
  br label %30

30:                                               ; preds = %24, %19
  %31 = load ptr, ptr %3, align 8
  call void @_efree(ptr noundef %31)
  ret void
}