; Function Attrs: nounwind uwtable
define void @php_stream_context_free(ptr noundef %0) local_unnamed_addr #2 {
  %2 = getelementptr inbounds i8, ptr %0, i64 16
  %3 = load i8, ptr %2, align 8
  %.not = icmp eq i8 %3, 0
  br i1 %.not, label %6, label %4

4:                                                ; preds = %1
  %5 = getelementptr inbounds i8, ptr %0, i64 8
  tail call void @zval_ptr_dtor(ptr noundef nonnull %5) #27
  store i32 0, ptr %2, align 8
  br label %6

6:                                                ; preds = %4, %1
  %7 = load ptr, ptr %0, align 8
  %.not8 = icmp eq ptr %7, null
  br i1 %.not8, label %12, label %8

8:                                                ; preds = %6
  %9 = getelementptr inbounds i8, ptr %7, i64 8
  %10 = load ptr, ptr %9, align 8
  %.not.i = icmp eq ptr %10, null
  br i1 %.not.i, label %php_stream_notification_free.exit, label %11

11:                                               ; preds = %8
  tail call void %10(ptr noundef nonnull %7) #27
  br label %php_stream_notification_free.exit

php_stream_notification_free.exit:                ; preds = %8, %11
  tail call void @_efree(ptr noundef nonnull %7) #27
  store ptr null, ptr %0, align 8
  br label %12

12:                                               ; preds = %php_stream_notification_free.exit, %6
  tail call void @_efree(ptr noundef nonnull %0) #27
  ret void
}